target datalayout = "e-m:e-p270:32:32-p271:32:32-p272:64:64-i64:64-i128:128-f80:128-n8:16:32:64-S128"
target triple = "x86_64-pc-linux-gnu"

%"class.std::__shared_count" = type { ptr }
%"class.dropbox::oxygen::nn.154" = type { %"class.std::shared_ptr.155" }
%"class.std::shared_ptr.155" = type { %"class.std::__shared_ptr.156" }
%"class.std::__shared_ptr.156" = type { ptr, %"class.std::__shared_count" }

; Function Attrs: mustprogress nounwind uwtable
define linkonce_odr noundef ptr @_ZNKSt12__shared_ptrIN5osgeo4proj2cs17TemporalMeasureCSELN9__gnu_cxx12_Lock_policyE2EE3getEv(ptr noundef nonnull align 8 dereferenceable(16) %0) #5 comdat align 2 {
  %2 = alloca ptr, align 8
  store ptr %0, ptr %2, align 8, !tbaa !277
  %3 = load ptr, ptr %2, align 8
  %4 = getelementptr inbounds nuw %"class.std::__shared_ptr.156", ptr %3, i32 0, i32 0
  %5 = load ptr, ptr %4, align 8, !tbaa !601
  ret ptr %5
}

; Function Attrs: mustprogress nounwind uwtable
define linkonce_odr noundef ptr @_ZNKSt19__shared_ptr_accessIN5osgeo4proj2cs17TemporalMeasureCSELN9__gnu_cxx12_Lock_policyE2ELb0ELb0EE6_M_getEv(ptr noundef nonnull align 1 dereferenceable(1) %0) #5 comdat align 2 {
  %2 = alloca ptr, align 8
  store ptr %0, ptr %2, align 8, !tbaa !607
  %3 = load ptr, ptr %2, align 8
  %4 = call noundef ptr @_ZNKSt12__shared_ptrIN5osgeo4proj2cs17TemporalMeasureCSELN9__gnu_cxx12_Lock_policyE2EE3getEv(ptr noundef nonnull align 8 dereferenceable(16) %3) #25
  ret ptr %4
}

; Function Attrs: mustprogress nounwind uwtable
define linkonce_odr noundef nonnull align 8 dereferenceable(56) ptr @_ZNKSt19__shared_ptr_accessIN5osgeo4proj2cs17TemporalMeasureCSELN9__gnu_cxx12_Lock_policyE2ELb0ELb0EEdeEv(ptr noundef nonnull align 1 dereferenceable(1) %0) #5 comdat align 2 {
  %2 = alloca ptr, align 8
  store ptr %0, ptr %2, align 8, !tbaa !607
  %3 = load ptr, ptr %2, align 8
  br label %4

4:                                                ; preds = %1
  br label %5

5:                                                ; preds = %4
  br label %6

6:                                                ; preds = %5
  %7 = call noundef ptr @_ZNKSt19__shared_ptr_accessIN5osgeo4proj2cs17TemporalMeasureCSELN9__gnu_cxx12_Lock_policyE2ELb0ELb0EE6_M_getEv(ptr noundef nonnull align 1 dereferenceable(1) %3) #25
  ret ptr %7
}

; Function Attrs: mustprogress nounwind uwtable
define linkonce_odr hidden noundef ptr @_ZNK7dropbox6oxygen2nnISt10shared_ptrIN5osgeo4proj2cs17TemporalMeasureCSEEEptEv(ptr noundef nonnull align 8 dereferenceable(16) %0) #5 comdat align 2 {
  %2 = alloca ptr, align 8
  store ptr %0, ptr %2, align 8, !tbaa !221
  %3 = load ptr, ptr %2, align 8
  %4 = getelementptr inbounds nuw %"class.dropbox::oxygen::nn.154", ptr %3, i32 0, i32 0
  %5 = call noundef nonnull align 8 dereferenceable(56) ptr @_ZNKSt19__shared_ptr_accessIN5osgeo4proj2cs17TemporalMeasureCSELN9__gnu_cxx12_Lock_policyE2ELb0ELb0EEdeEv(ptr noundef nonnull align 1 dereferenceable(1) %4) #25
  ret ptr %5
}

; Function Attrs: mustprogress uwtable
define void @_ZN5osgeo4proj2cs17TemporalMeasureCS6createERKNS0_4util11PropertyMapERKN7dropbox6oxygen2nnISt10shared_ptrINS1_20CoordinateSystemAxisEEEE(ptr dead_on_unwind noalias writable sret(%"class.dropbox::oxygen::nn.154") align 8 %0, ptr noundef nonnull align 8 dereferenceable(8) %1, ptr noundef nonnull align 8 dereferenceable(16) %2) #0 align 2 personality ptr @__gxx_personality_v0 {
  %4 = alloca ptr, align 8
  %5 = alloca ptr, align 8
  %6 = alloca ptr, align 8
  %7 = alloca i1, align 1
  %8 = alloca ptr, align 8
  %9 = alloca i32, align 4
  store ptr %0, ptr %4, align 8
  store ptr %1, ptr %5, align 8, !tbaa !80
  store ptr %2, ptr %6, align 8, !tbaa !85
  store i1 false, ptr %7, align 1
  %10 = load ptr, ptr %6, align 8, !tbaa !85
  call void @_ZN5osgeo4proj2cs17TemporalMeasureCS14nn_make_sharedIS2_JRKN7dropbox6oxygen2nnISt10shared_ptrINS1_20CoordinateSystemAxisEEEEEEENS6_IS7_IT_EEEDpOT0_(ptr dead_on_unwind writable sret(%"class.dropbox::oxygen::nn.154") align 8 %0, ptr noundef nonnull align 8 dereferenceable(16) %10)
  %11 = invoke noundef ptr @_ZNK7dropbox6oxygen2nnISt10shared_ptrIN5osgeo4proj2cs17TemporalMeasureCSEEEptEv(ptr noundef nonnull align 8 dereferenceable(16) %0)
          to label %12 unwind label %16

12:                                               ; preds = %3
  %13 = load ptr, ptr %5, align 8, !tbaa !80
  invoke void @_ZN5osgeo4proj6common16IdentifiedObject13setPropertiesERKNS0_4util11PropertyMapE(ptr noundef nonnull align 8 dereferenceable(40) %11, ptr noundef nonnull align 8 dereferenceable(8) %13)
          to label %14 unwind label %16

14:                                               ; preds = %12
  store i1 true, ptr %7, align 1
  %15 = load i1, ptr %7, align 1
  br i1 %15, label %21, label %20

16:                                               ; preds = %12, %3
  %17 = landingpad { ptr, i32 }
          cleanup
  %18 = extractvalue { ptr, i32 } %17, 0
  store ptr %18, ptr %8, align 8
  %19 = extractvalue { ptr, i32 } %17, 1
  store i32 %19, ptr %9, align 4
  call void @_ZN7dropbox6oxygen2nnISt10shared_ptrIN5osgeo4proj2cs17TemporalMeasureCSEEED2Ev(ptr noundef nonnull align 8 dereferenceable(16) %0) #25
  br label %22

20:                                               ; preds = %14
  call void @_ZN7dropbox6oxygen2nnISt10shared_ptrIN5osgeo4proj2cs17TemporalMeasureCSEEED2Ev(ptr noundef nonnull align 8 dereferenceable(16) %0) #25
  br label %21

21:                                               ; preds = %20, %14
  ret void

22:                                               ; preds = %16
  %23 = load ptr, ptr %8, align 8
  %24 = load i32, ptr %9, align 4
  %25 = insertvalue { ptr, i32 } poison, ptr %23, 0
  %26 = insertvalue { ptr, i32 } %25, i32 %24, 1
  resume { ptr, i32 } %26
}