; Function Attrs: mustprogress uwtable
define void @_ZN5osgeo4proj2cs17TemporalMeasureCS6createERKNS0_4util11PropertyMapERKN7dropbox6oxygen2nnISt10shared_ptrINS1_20CoordinateSystemAxisEEEE(ptr dead_on_unwind noalias writable sret(%"class.dropbox::oxygen::nn.154") align 8 %0, ptr noundef nonnull align 8 dereferenceable(8) %1, ptr noundef nonnull align 8 dereferenceable(16) %2) local_unnamed_addr #0 align 2 personality ptr @__gxx_personality_v0 {
  tail call void @_ZN5osgeo4proj2cs17TemporalMeasureCS14nn_make_sharedIS2_JRKN7dropbox6oxygen2nnISt10shared_ptrINS1_20CoordinateSystemAxisEEEEEEENS6_IS7_IT_EEEDpOT0_(ptr dead_on_unwind writable sret(%"class.dropbox::oxygen::nn.154") align 8 %0, ptr noundef nonnull align 8 dereferenceable(16) %2)
  %4 = load ptr, ptr %0, align 8, !tbaa !237
  invoke void @_ZN5osgeo4proj6common16IdentifiedObject13setPropertiesERKNS0_4util11PropertyMapE(ptr noundef nonnull align 8 dereferenceable(40) %4, ptr noundef nonnull align 8 dereferenceable(8) %1)
          to label %7 unwind label %5

5:                                                ; preds = %3
  %6 = landingpad { ptr, i32 }
          cleanup
  tail call void @_ZN7dropbox6oxygen2nnISt10shared_ptrIN5osgeo4proj2cs17TemporalMeasureCSEEED2Ev(ptr noundef nonnull align 8 dereferenceable(16) %0) #33
  resume { ptr, i32 } %6

7:                                                ; preds = %3
  ret void
}